target datalayout = "e-m:e-p270:32:32-p271:32:32-p272:64:64-i64:64-i128:128-f80:128-n8:16:32:64-S128"
target triple = "x86_64-pc-linux-gnu"

%struct.location = type { i32, i32 }
%struct.block = type { ptr, ptr }
%struct.inst = type { ptr, ptr, i32, %struct.anon, ptr, %struct.location, ptr, ptr, i32, i32, i32, i32, %struct.block, %struct.block, ptr, i32 }
%struct.anon = type { i16, ptr, %struct.jv, ptr }
%struct.jv = type { i8, i8, i16, i32, %union.anon }
%union.anon = type { ptr }

@.str.1 = private unnamed_addr constant [6 x i8] c"%s/%i\00", align 1

; Function Attrs: nounwind uwtable
define dso_local { i64, ptr } @block_list_funcs(ptr %0, ptr %1, i32 noundef %2) #0 {
  %4 = alloca %struct.jv, align 8
  %5 = alloca %struct.block, align 8
  %6 = alloca i32, align 4
  %7 = alloca %struct.jv, align 8
  %8 = alloca ptr, align 8
  %9 = alloca %struct.jv, align 8
  %10 = alloca %struct.jv, align 8
  %11 = alloca %struct.jv, align 8
  %12 = getelementptr inbounds nuw { ptr, ptr }, ptr %5, i32 0, i32 0
  store ptr %0, ptr %12, align 8
  %13 = getelementptr inbounds nuw { ptr, ptr }, ptr %5, i32 0, i32 1
  store ptr %1, ptr %13, align 8
  store i32 %2, ptr %6, align 4, !tbaa !26
  call void @llvm.lifetime.start.p0(i64 16, ptr %7) #7
  %14 = call { i64, ptr } @jv_object()
  %15 = getelementptr inbounds nuw { i64, ptr }, ptr %7, i32 0, i32 0
  %16 = extractvalue { i64, ptr } %14, 0
  store i64 %16, ptr %15, align 8
  %17 = getelementptr inbounds nuw { i64, ptr }, ptr %7, i32 0, i32 1
  %18 = extractvalue { i64, ptr } %14, 1
  store ptr %18, ptr %17, align 8
  call void @llvm.lifetime.start.p0(i64 8, ptr %8) #7
  %19 = getelementptr inbounds nuw %struct.block, ptr %5, i32 0, i32 0
  %20 = load ptr, ptr %19, align 8, !tbaa !4
  store ptr %20, ptr %8, align 8, !tbaa !13
  br label %21

21:                                               ; preds = %87, %3
  %22 = load ptr, ptr %8, align 8, !tbaa !13
  %23 = icmp ne ptr %22, null
  br i1 %23, label %25, label %24

24:                                               ; preds = %21
  call void @llvm.lifetime.end.p0(i64 8, ptr %8) #7
  br label %91

25:                                               ; preds = %21
  %26 = load ptr, ptr %8, align 8, !tbaa !13
  %27 = getelementptr inbounds nuw %struct.inst, ptr %26, i32 0, i32 2
  %28 = load i32, ptr %27, align 8, !tbaa !33
  %29 = icmp eq i32 %28, 33
  br i1 %29, label %35, label %30

30:                                               ; preds = %25
  %31 = load ptr, ptr %8, align 8, !tbaa !13
  %32 = getelementptr inbounds nuw %struct.inst, ptr %31, i32 0, i32 2
  %33 = load i32, ptr %32, align 8, !tbaa !33
  %34 = icmp eq i32 %33, 34
  br i1 %34, label %35, label %86

35:                                               ; preds = %30, %25
  %36 = load ptr, ptr %8, align 8, !tbaa !13
  %37 = getelementptr inbounds nuw %struct.inst, ptr %36, i32 0, i32 7
  %38 = load ptr, ptr %37, align 8, !tbaa !36
  %39 = icmp ne ptr %38, null
  br i1 %39, label %40, label %85

40:                                               ; preds = %35
  %41 = load i32, ptr %6, align 4, !tbaa !26
  %42 = icmp ne i32 %41, 0
  br i1 %42, label %43, label %51

43:                                               ; preds = %40
  %44 = load ptr, ptr %8, align 8, !tbaa !13
  %45 = getelementptr inbounds nuw %struct.inst, ptr %44, i32 0, i32 7
  %46 = load ptr, ptr %45, align 8, !tbaa !36
  %47 = getelementptr inbounds i8, ptr %46, i64 0
  %48 = load i8, ptr %47, align 1, !tbaa !42
  %49 = sext i8 %48 to i32
  %50 = icmp ne i32 %49, 95
  br i1 %50, label %51, label %85

51:                                               ; preds = %43, %40
  call void @llvm.lifetime.start.p0(i64 16, ptr %9) #7
  %52 = load ptr, ptr %8, align 8, !tbaa !13
  %53 = getelementptr inbounds nuw %struct.inst, ptr %52, i32 0, i32 7
  %54 = load ptr, ptr %53, align 8, !tbaa !36
  %55 = load ptr, ptr %8, align 8, !tbaa !13
  %56 = getelementptr inbounds nuw %struct.inst, ptr %55, i32 0, i32 10
  %57 = load i32, ptr %56, align 8, !tbaa !39
  %58 = call { i64, ptr } (ptr, ...) @jv_string_fmt(ptr noundef @.str.1, ptr noundef %54, i32 noundef %57)
  %59 = getelementptr inbounds nuw { i64, ptr }, ptr %10, i32 0, i32 0
  %60 = extractvalue { i64, ptr } %58, 0
  store i64 %60, ptr %59, align 8
  %61 = getelementptr inbounds nuw { i64, ptr }, ptr %10, i32 0, i32 1
  %62 = extractvalue { i64, ptr } %58, 1
  store ptr %62, ptr %61, align 8
  %63 = call { i64, ptr } @jv_null()
  %64 = getelementptr inbounds nuw { i64, ptr }, ptr %11, i32 0, i32 0
  %65 = extractvalue { i64, ptr } %63, 0
  store i64 %65, ptr %64, align 8
  %66 = getelementptr inbounds nuw { i64, ptr }, ptr %11, i32 0, i32 1
  %67 = extractvalue { i64, ptr } %63, 1
  store ptr %67, ptr %66, align 8
  %68 = getelementptr inbounds nuw { i64, ptr }, ptr %7, i32 0, i32 0
  %69 = load i64, ptr %68, align 8
  %70 = getelementptr inbounds nuw { i64, ptr }, ptr %7, i32 0, i32 1
  %71 = load ptr, ptr %70, align 8
  %72 = getelementptr inbounds nuw { i64, ptr }, ptr %10, i32 0, i32 0
  %73 = load i64, ptr %72, align 8
  %74 = getelementptr inbounds nuw { i64, ptr }, ptr %10, i32 0, i32 1
  %75 = load ptr, ptr %74, align 8
  %76 = getelementptr inbounds nuw { i64, ptr }, ptr %11, i32 0, i32 0
  %77 = load i64, ptr %76, align 8
  %78 = getelementptr inbounds nuw { i64, ptr }, ptr %11, i32 0, i32 1
  %79 = load ptr, ptr %78, align 8
  %80 = call { i64, ptr } @jv_object_set(i64 %69, ptr %71, i64 %73, ptr %75, i64 %77, ptr %79)
  %81 = getelementptr inbounds nuw { i64, ptr }, ptr %9, i32 0, i32 0
  %82 = extractvalue { i64, ptr } %80, 0
  store i64 %82, ptr %81, align 8
  %83 = getelementptr inbounds nuw { i64, ptr }, ptr %9, i32 0, i32 1
  %84 = extractvalue { i64, ptr } %80, 1
  store ptr %84, ptr %83, align 8
  call void @llvm.memcpy.p0.p0.i64(ptr align 8 %7, ptr align 8 %9, i64 16, i1 false), !tbaa.struct !41
  call void @llvm.lifetime.end.p0(i64 16, ptr %9) #7
  br label %85

85:                                               ; preds = %51, %43, %35
  br label %86

86:                                               ; preds = %85, %30
  br label %87

87:                                               ; preds = %86
  %88 = load ptr, ptr %8, align 8, !tbaa !13
  %89 = getelementptr inbounds nuw %struct.inst, ptr %88, i32 0, i32 0
  %90 = load ptr, ptr %89, align 8, !tbaa !28
  store ptr %90, ptr %8, align 8, !tbaa !13
  br label %21, !llvm.loop !59

91:                                               ; preds = %24
  %92 = getelementptr inbounds nuw { i64, ptr }, ptr %7, i32 0, i32 0
  %93 = load i64, ptr %92, align 8
  %94 = getelementptr inbounds nuw { i64, ptr }, ptr %7, i32 0, i32 1
  %95 = load ptr, ptr %94, align 8
  %96 = call { i64, ptr } @jv_keys_unsorted(i64 %93, ptr %95)
  %97 = getelementptr inbounds nuw { i64, ptr }, ptr %4, i32 0, i32 0
  %98 = extractvalue { i64, ptr } %96, 0
  store i64 %98, ptr %97, align 8
  %99 = getelementptr inbounds nuw { i64, ptr }, ptr %4, i32 0, i32 1
  %100 = extractvalue { i64, ptr } %96, 1
  store ptr %100, ptr %99, align 8
  call void @llvm.lifetime.end.p0(i64 16, ptr %7) #7
  %101 = load { i64, ptr }, ptr %4, align 8
  ret { i64, ptr } %101
}