; Function Attrs: nounwind uwtable
define dso_local { i64, ptr } @block_list_funcs(ptr readonly captures(address_is_null) %0, ptr readnone captures(none) %1, i32 noundef %2) local_unnamed_addr #1 {
  %4 = tail call { i64, ptr } @jv_object() #17
  %5 = extractvalue { i64, ptr } %4, 0
  %6 = extractvalue { i64, ptr } %4, 1
  %.not23 = icmp eq ptr %0, null
  br i1 %.not23, label %._crit_edge, label %.lr.ph

.lr.ph:                                           ; preds = %3
  %.not21 = icmp eq i32 %2, 0
  br i1 %.not21, label %.lr.ph.split.us, label %.lr.ph.split

.lr.ph.split.us:                                  ; preds = %.lr.ph, %24
  %.sroa.6.026.us = phi ptr [ %.sroa.6.1.us, %24 ], [ %6, %.lr.ph ]
  %.sroa.011.025.us = phi i64 [ %.sroa.011.1.us, %24 ], [ %5, %.lr.ph ]
  %.024.us = phi ptr [ %25, %24 ], [ %0, %.lr.ph ]
  %7 = getelementptr inbounds nuw i8, ptr %.024.us, i64 16
  %8 = load i32, ptr %7, align 8, !tbaa !25
  %.off.us = add i32 %8, -33
  %switch.us = icmp ult i32 %.off.us, 2
  br i1 %switch.us, label %9, label %24

9:                                                ; preds = %.lr.ph.split.us
  %10 = getelementptr inbounds nuw i8, ptr %.024.us, i64 88
  %11 = load ptr, ptr %10, align 8, !tbaa !30
  %.not20.us = icmp eq ptr %11, null
  br i1 %.not20.us, label %24, label %12

12:                                               ; preds = %9
  %13 = getelementptr inbounds nuw i8, ptr %.024.us, i64 104
  %14 = load i32, ptr %13, align 8, !tbaa !27
  %15 = tail call { i64, ptr } (ptr, ...) @jv_string_fmt(ptr noundef nonnull @.str.1, ptr noundef nonnull %11, i32 noundef %14) #17
  %16 = extractvalue { i64, ptr } %15, 0
  %17 = extractvalue { i64, ptr } %15, 1
  %18 = tail call { i64, ptr } @jv_null() #17
  %19 = extractvalue { i64, ptr } %18, 0
  %20 = extractvalue { i64, ptr } %18, 1
  %21 = tail call { i64, ptr } @jv_object_set(i64 %.sroa.011.025.us, ptr %.sroa.6.026.us, i64 %16, ptr %17, i64 %19, ptr %20) #17
  %22 = extractvalue { i64, ptr } %21, 0
  %23 = extractvalue { i64, ptr } %21, 1
  br label %24

24:                                               ; preds = %12, %9, %.lr.ph.split.us
  %.sroa.011.1.us = phi i64 [ %22, %12 ], [ %.sroa.011.025.us, %9 ], [ %.sroa.011.025.us, %.lr.ph.split.us ]
  %.sroa.6.1.us = phi ptr [ %23, %12 ], [ %.sroa.6.026.us, %9 ], [ %.sroa.6.026.us, %.lr.ph.split.us ]
  %25 = load ptr, ptr %.024.us, align 8, !tbaa !22
  %.not.us = icmp eq ptr %25, null
  br i1 %.not.us, label %._crit_edge, label %.lr.ph.split.us, !llvm.loop !49

._crit_edge:                                      ; preds = %46, %24, %3
  %.sroa.011.0.lcssa = phi i64 [ %5, %3 ], [ %.sroa.011.1.us, %24 ], [ %.sroa.011.1, %46 ]
  %.sroa.6.0.lcssa = phi ptr [ %6, %3 ], [ %.sroa.6.1.us, %24 ], [ %.sroa.6.1, %46 ]
  %26 = tail call { i64, ptr } @jv_keys_unsorted(i64 %.sroa.011.0.lcssa, ptr %.sroa.6.0.lcssa) #17
  ret { i64, ptr } %26

.lr.ph.split:                                     ; preds = %.lr.ph, %46
  %.sroa.6.026 = phi ptr [ %.sroa.6.1, %46 ], [ %6, %.lr.ph ]
  %.sroa.011.025 = phi i64 [ %.sroa.011.1, %46 ], [ %5, %.lr.ph ]
  %.024 = phi ptr [ %47, %46 ], [ %0, %.lr.ph ]
  %27 = getelementptr inbounds nuw i8, ptr %.024, i64 16
  %28 = load i32, ptr %27, align 8, !tbaa !25
  %.off = add i32 %28, -33
  %switch = icmp ult i32 %.off, 2
  br i1 %switch, label %29, label %46

29:                                               ; preds = %.lr.ph.split
  %30 = getelementptr inbounds nuw i8, ptr %.024, i64 88
  %31 = load ptr, ptr %30, align 8, !tbaa !30
  %.not20 = icmp eq ptr %31, null
  br i1 %.not20, label %46, label %32

32:                                               ; preds = %29
  %33 = load i8, ptr %31, align 1, !tbaa !29
  %.not22 = icmp eq i8 %33, 95
  br i1 %.not22, label %46, label %34

34:                                               ; preds = %32
  %35 = getelementptr inbounds nuw i8, ptr %.024, i64 104
  %36 = load i32, ptr %35, align 8, !tbaa !27
  %37 = tail call { i64, ptr } (ptr, ...) @jv_string_fmt(ptr noundef nonnull @.str.1, ptr noundef nonnull %31, i32 noundef %36) #17
  %38 = extractvalue { i64, ptr } %37, 0
  %39 = extractvalue { i64, ptr } %37, 1
  %40 = tail call { i64, ptr } @jv_null() #17
  %41 = extractvalue { i64, ptr } %40, 0
  %42 = extractvalue { i64, ptr } %40, 1
  %43 = tail call { i64, ptr } @jv_object_set(i64 %.sroa.011.025, ptr %.sroa.6.026, i64 %38, ptr %39, i64 %41, ptr %42) #17
  %44 = extractvalue { i64, ptr } %43, 0
  %45 = extractvalue { i64, ptr } %43, 1
  br label %46

46:                                               ; preds = %.lr.ph.split, %34, %32, %29
  %.sroa.011.1 = phi i64 [ %44, %34 ], [ %.sroa.011.025, %32 ], [ %.sroa.011.025, %29 ], [ %.sroa.011.025, %.lr.ph.split ]
  %.sroa.6.1 = phi ptr [ %45, %34 ], [ %.sroa.6.026, %32 ], [ %.sroa.6.026, %29 ], [ %.sroa.6.026, %.lr.ph.split ]
  %47 = load ptr, ptr %.024, align 8, !tbaa !22
  %.not = icmp eq ptr %47, null
  br i1 %.not, label %._crit_edge, label %.lr.ph.split, !llvm.loop !49
}